; ModuleID = '22/475.c'
source_filename = "22/475.c"
target datalayout = "e-m:e-p270:32:32-p271:32:32-p272:64:64-i64:64-f80:128-n8:16:32:64-S128"
target triple = "x86_64-pc-linux-gnu"

@.str = private unnamed_addr constant [3 x i8] c"%d\00", align 1
@.str.1 = private unnamed_addr constant [3 x i8] c"%c\00", align 1
@.str.2 = private unnamed_addr constant [3 x i8] c"No\00", align 1

; Function Attrs: noinline nounwind uwtable
define dso_local i32 @main() #0 {
  %1 = alloca i32, align 4
  %2 = alloca i64, align 8
  %3 = alloca i64, align 8
  %4 = alloca i64, align 8
  %5 = alloca i8, align 1
  store i32 0, i32* %1, align 4
  store i64 -1000000000, i64* %2, align 8
  store i64 -1000000000, i64* %3, align 8
  br label %6

6:                                                ; preds = %27, %0
  %7 = call i32 (i8*, ...) @__isoc99_scanf(i8* getelementptr inbounds ([3 x i8], [3 x i8]* @.str, i64 0, i64 0), i64* %4)
  %8 = icmp ne i32 %7, -1
  br i1 %8, label %9, label %29

9:                                                ; preds = %6
  %10 = load i64, i64* %4, align 8
  %11 = load i64, i64* %2, align 8
  %12 = icmp sgt i64 %10, %11
  br i1 %12, label %13, label %16

13:                                               ; preds = %9
  %14 = load i64, i64* %2, align 8
  store i64 %14, i64* %3, align 8
  %15 = load i64, i64* %4, align 8
  store i64 %15, i64* %2, align 8
  br label %27

16:                                               ; preds = %9
  %17 = load i64, i64* %4, align 8
  %18 = load i64, i64* %2, align 8
  %19 = icmp slt i64 %17, %18
  br i1 %19, label %20, label %26

20:                                               ; preds = %16
  %21 = load i64, i64* %4, align 8
  %22 = load i64, i64* %3, align 8
  %23 = icmp sgt i64 %21, %22
  br i1 %23, label %24, label %26

24:                                               ; preds = %20
  %25 = load i64, i64* %4, align 8
  store i64 %25, i64* %3, align 8
  br label %26

26:                                               ; preds = %24, %20, %16
  br label %27

27:                                               ; preds = %26, %13
  %28 = call i32 (i8*, ...) @__isoc99_scanf(i8* getelementptr inbounds ([3 x i8], [3 x i8]* @.str.1, i64 0, i64 0), i8* %5)
  br label %6

29:                                               ; preds = %6
  %30 = load i64, i64* %3, align 8
  %31 = icmp ne i64 %30, -1000000000
  br i1 %31, label %32, label %35

32:                                               ; preds = %29
  %33 = load i64, i64* %3, align 8
  %34 = call i32 (i8*, ...) @printf(i8* getelementptr inbounds ([3 x i8], [3 x i8]* @.str, i64 0, i64 0), i64 %33)
  br label %37

35:                                               ; preds = %29
  %36 = call i32 (i8*, ...) @printf(i8* getelementptr inbounds ([3 x i8], [3 x i8]* @.str.2, i64 0, i64 0))
  br label %37

37:                                               ; preds = %35, %32
  %38 = load i32, i32* %1, align 4
  ret i32 %38
}

declare dso_local i32 @__isoc99_scanf(i8*, ...) #1

declare dso_local i32 @printf(i8*, ...) #1


!llvm.module.flags = !{!0}
!llvm.ident = !{!1}

!0 = !{i32 1, !"wchar_size", i32 4}
!1 = !{!"clang version 10.0.0-4ubuntu1 "}
