; ModuleID = 'source-C-CXX/21/475.c'
source_filename = "source-C-CXX/21/475.c"
target datalayout = "e-m:e-p270:32:32-p271:32:32-p272:64:64-i64:64-f80:128-n8:16:32:64-S128"
target triple = "x86_64-pc-linux-gnu"

@.str = private unnamed_addr constant [3 x i8] c"%d\00", align 1
@.str.1 = private unnamed_addr constant [3 x i8] c"%c\00", align 1
@.str.2 = private unnamed_addr constant [3 x i8] c"No\00", align 1

; Function Attrs: nofree nounwind sspstrong uwtable
define dso_local i32 @main() local_unnamed_addr #0 {
  %1 = alloca i64, align 8
  %2 = alloca i8, align 1
  %3 = bitcast i64* %1 to i8*
  call void @llvm.lifetime.start.p0i8(i64 8, i8* nonnull %3) #3
  call void @llvm.lifetime.start.p0i8(i64 1, i8* nonnull %2) #3
  %4 = call i32 (i8*, ...) @__isoc99_scanf(i8* getelementptr inbounds ([3 x i8], [3 x i8]* @.str, i64 0, i64 0), i64* nonnull %1)
  %5 = icmp eq i32 %4, -1
  br i1 %5, label %24, label %6

6:                                                ; preds = %0, %6
  %7 = phi i64 [ %16, %6 ], [ -1000000000, %0 ]
  %8 = phi i64 [ %15, %6 ], [ -1000000000, %0 ]
  %9 = load i64, i64* %1, align 8, !tbaa !5
  %10 = icmp sgt i64 %9, %8
  %11 = icmp slt i64 %9, %8
  %12 = icmp sgt i64 %9, %7
  %13 = select i1 %11, i1 %12, i1 false
  %14 = select i1 %13, i64 %9, i64 %7
  %15 = select i1 %10, i64 %9, i64 %8
  %16 = select i1 %10, i64 %8, i64 %14
  %17 = call i32 (i8*, ...) @__isoc99_scanf(i8* getelementptr inbounds ([3 x i8], [3 x i8]* @.str.1, i64 0, i64 0), i8* nonnull %2)
  %18 = call i32 (i8*, ...) @__isoc99_scanf(i8* getelementptr inbounds ([3 x i8], [3 x i8]* @.str, i64 0, i64 0), i64* nonnull %1)
  %19 = icmp eq i32 %18, -1
  br i1 %19, label %20, label %6, !llvm.loop !9

20:                                               ; preds = %6
  %21 = icmp eq i64 %16, -1000000000
  br i1 %21, label %24, label %22

22:                                               ; preds = %20
  %23 = call i32 (i8*, ...) @printf(i8* nonnull dereferenceable(1) getelementptr inbounds ([3 x i8], [3 x i8]* @.str, i64 0, i64 0), i64 %16)
  br label %26

24:                                               ; preds = %0, %20
  %25 = call i32 (i8*, ...) @printf(i8* nonnull dereferenceable(1) getelementptr inbounds ([3 x i8], [3 x i8]* @.str.2, i64 0, i64 0))
  br label %26

26:                                               ; preds = %24, %22
  call void @llvm.lifetime.end.p0i8(i64 1, i8* nonnull %2) #3
  call void @llvm.lifetime.end.p0i8(i64 8, i8* nonnull %3) #3
  ret i32 0
}

; Function Attrs: argmemonly mustprogress nofree nosync nounwind willreturn
declare void @llvm.lifetime.start.p0i8(i64 immarg, i8* nocapture) #1

; Function Attrs: nofree nounwind
declare noundef i32 @__isoc99_scanf(i8* nocapture noundef readonly, ...) local_unnamed_addr #2

; Function Attrs: nofree nounwind
declare noundef i32 @printf(i8* nocapture noundef readonly, ...) local_unnamed_addr #2

; Function Attrs: argmemonly mustprogress nofree nosync nounwind willreturn
declare void @llvm.lifetime.end.p0i8(i64 immarg, i8* nocapture) #1


!llvm.module.flags = !{!0, !1, !2, !3}
!llvm.ident = !{!4}

!0 = !{i32 1, !"wchar_size", i32 4}
!1 = !{i32 7, !"PIC Level", i32 2}
!2 = !{i32 7, !"PIE Level", i32 2}
!3 = !{i32 7, !"uwtable", i32 1}
!4 = !{!"clang version 13.0.0"}
!5 = !{!6, !6, i64 0}
!6 = !{!"long", !7, i64 0}
!7 = !{!"omnipotent char", !8, i64 0}
!8 = !{!"Simple C/C++ TBAA"}
!9 = distinct !{!9, !10}
!10 = !{!"llvm.loop.mustprogress"}
